; Function Attrs: mustprogress uwtable
define dso_local void @_ZN8V3Config14addProfileDataEP8FileLineRKNSt7__cxx1112basic_stringIcSt11char_traitsIcESaIcEEES9_m(ptr noundef %0, ptr noundef nonnull align 8 dereferenceable(32) %1, ptr noundef nonnull align 8 dereferenceable(32) %2, i64 noundef %3) local_unnamed_addr #3 align 2 {
  %5 = load atomic i8, ptr @_ZGVZN16V3ConfigResolver1sEvE11s_singleton acquire, align 8
  %6 = icmp eq i8 %5, 0
  br i1 %6, label %7, label %_ZN16V3ConfigResolver1sEv.exit, !prof !5

7:                                                ; preds = %4
  %8 = tail call i32 @__cxa_guard_acquire(ptr nonnull @_ZGVZN16V3ConfigResolver1sEvE11s_singleton) #18
  %.not.i = icmp eq i32 %8, 0
  br i1 %.not.i, label %_ZN16V3ConfigResolver1sEv.exit, label %9

9:                                                ; preds = %7
  tail call void @_ZN16V3ConfigResolverC2Ev(ptr noundef nonnull align 8 dereferenceable(408) @_ZZN16V3ConfigResolver1sEvE11s_singleton) #18
  %10 = tail call i32 @__cxa_atexit(ptr nonnull @_ZN16V3ConfigResolverD2Ev, ptr nonnull @_ZZN16V3ConfigResolver1sEvE11s_singleton, ptr nonnull @__dso_handle) #18
  tail call void @__cxa_guard_release(ptr nonnull @_ZGVZN16V3ConfigResolver1sEvE11s_singleton) #18
  br label %_ZN16V3ConfigResolver1sEv.exit

_ZN16V3ConfigResolver1sEv.exit:                   ; preds = %4, %7, %9
  %11 = load ptr, ptr getelementptr inbounds (%class.V3ConfigResolver, ptr @_ZZN16V3ConfigResolver1sEvE11s_singleton, i64 0, i32 4), align 8
  %.not.i3 = icmp eq ptr %11, null
  br i1 %.not.i3, label %12, label %_ZN16V3ConfigResolver14addProfileDataEP8FileLineRKNSt7__cxx1112basic_stringIcSt11char_traitsIcESaIcEEES9_m.exit

12:                                               ; preds = %_ZN16V3ConfigResolver1sEv.exit
  store ptr %0, ptr getelementptr inbounds (%class.V3ConfigResolver, ptr @_ZZN16V3ConfigResolver1sEvE11s_singleton, i64 0, i32 4), align 8
  br label %_ZN16V3ConfigResolver14addProfileDataEP8FileLineRKNSt7__cxx1112basic_stringIcSt11char_traitsIcESaIcEEES9_m.exit

_ZN16V3ConfigResolver14addProfileDataEP8FileLineRKNSt7__cxx1112basic_stringIcSt11char_traitsIcESaIcEEES9_m.exit: ; preds = %_ZN16V3ConfigResolver1sEv.exit, %12
  %spec.store.select.i = tail call i64 @llvm.umax.i64(i64 %3, i64 1)
  %13 = tail call noundef nonnull align 8 dereferenceable(56) ptr @_ZNSt8__detail9_Map_baseINSt7__cxx1112basic_stringIcSt11char_traitsIcESaIcEEESt4pairIKS6_St13unordered_mapIS6_mSt4hashIS6_ESt8equal_toIS6_ESaIS7_IS8_mEEEESaISH_ENS_10_Select1stESD_SB_NS_18_Mod_range_hashingENS_20_Default_ranged_hashENS_20_Prime_rehash_policyENS_17_Hashtable_traitsILb1ELb0ELb1EEELb1EEixERS8_(ptr noundef nonnull align 1 dereferenceable(1) getelementptr inbounds (%class.V3ConfigResolver, ptr @_ZZN16V3ConfigResolver1sEvE11s_singleton, i64 0, i32 3, i32 0, i32 0), ptr noundef nonnull align 8 dereferenceable(32) %1)
  %14 = tail call noundef nonnull align 8 dereferenceable(8) ptr @_ZNSt8__detail9_Map_baseINSt7__cxx1112basic_stringIcSt11char_traitsIcESaIcEEESt4pairIKS6_mESaIS9_ENS_10_Select1stESt8equal_toIS6_ESt4hashIS6_ENS_18_Mod_range_hashingENS_20_Default_ranged_hashENS_20_Prime_rehash_policyENS_17_Hashtable_traitsILb1ELb0ELb1EEELb1EEixERS8_(ptr noundef nonnull align 1 dereferenceable(1) %13, ptr noundef nonnull align 8 dereferenceable(32) %2)
  %15 = load i64, ptr %14, align 8
  %16 = add i64 %15, %spec.store.select.i
  store i64 %16, ptr %14, align 8
  ret void
}